; Function Attrs: mustprogress uwtable
define noundef i32 @umsg_format_77(ptr noundef %0, ptr noundef %1, i32 noundef %2, ptr noundef %3, ...) local_unnamed_addr #1 {
  %5 = alloca [1 x %struct.__va_list_tag], align 16
  call void @llvm.lifetime.start.p0(i64 24, ptr nonnull %5) #10
  call void @llvm.va_start.p0(ptr nonnull %5)
  %6 = call i32 @umsg_vformat_77(ptr noundef %0, ptr noundef %1, i32 noundef %2, ptr noundef nonnull %5, ptr noundef %3)
  call void @llvm.va_end.p0(ptr nonnull %5)
  call void @llvm.lifetime.end.p0(i64 24, ptr nonnull %5) #10
  ret i32 %6
}